; Function Attrs: mustprogress nounwind uwtable
define dso_local void @_ZN27btGImpactCollisionAlgorithmD0Ev(ptr noundef nonnull align 8 dereferenceable(64) %this) unnamed_addr #2 align 2 personality ptr @__gxx_personality_v0 {
entry:
  store ptr getelementptr inbounds ({ [7 x ptr] }, ptr @_ZTV27btGImpactCollisionAlgorithm, i64 0, i32 0, i64 2), ptr %this, align 8
  %m_manifoldPtr.i.i.i = getelementptr inbounds i8, ptr %this, i64 24
  %0 = load ptr, ptr %m_manifoldPtr.i.i.i, align 8
  %cmp.i.i.i = icmp eq ptr %0, null
  br i1 %cmp.i.i.i, label %_ZN27btGImpactCollisionAlgorithm23destroyContactManifoldsEv.exit.i.i, label %if.end.i.i.i

if.end.i.i.i:                                     ; preds = %entry
  %m_dispatcher.i.i.i = getelementptr inbounds i8, ptr %this, i64 8
  %1 = load ptr, ptr %m_dispatcher.i.i.i, align 8
  %vtable.i.i.i = load ptr, ptr %1, align 8
  %vfn.i.i.i = getelementptr inbounds i8, ptr %vtable.i.i.i, i64 32
  %2 = load ptr, ptr %vfn.i.i.i, align 8
  invoke void %2(ptr noundef nonnull align 8 dereferenceable(8) %1, ptr noundef nonnull %0)
          to label %.noexc.i unwind label %terminate.lpad.i

.noexc.i:                                         ; preds = %if.end.i.i.i
  store ptr null, ptr %m_manifoldPtr.i.i.i, align 8
  br label %_ZN27btGImpactCollisionAlgorithm23destroyContactManifoldsEv.exit.i.i

_ZN27btGImpactCollisionAlgorithm23destroyContactManifoldsEv.exit.i.i: ; preds = %.noexc.i, %entry
  %m_convex_algorithm.i.i.i = getelementptr inbounds i8, ptr %this, i64 16
  %3 = load ptr, ptr %m_convex_algorithm.i.i.i, align 8
  %tobool.not.i.i.i = icmp eq ptr %3, null
  br i1 %tobool.not.i.i.i, label %_ZN27btGImpactCollisionAlgorithmD2Ev.exit, label %if.then.i.i.i

if.then.i.i.i:                                    ; preds = %_ZN27btGImpactCollisionAlgorithm23destroyContactManifoldsEv.exit.i.i
  %vtable.i1.i.i = load ptr, ptr %3, align 8
  %4 = load ptr, ptr %vtable.i1.i.i, align 8
  tail call void %4(ptr noundef nonnull align 8 dereferenceable(16) %3) #14
  %m_dispatcher.i2.i.i = getelementptr inbounds i8, ptr %this, i64 8
  %5 = load ptr, ptr %m_dispatcher.i2.i.i, align 8
  %6 = load ptr, ptr %m_convex_algorithm.i.i.i, align 8
  %vtable4.i.i.i = load ptr, ptr %5, align 8
  %vfn5.i.i.i = getelementptr inbounds i8, ptr %vtable4.i.i.i, i64 120
  %7 = load ptr, ptr %vfn5.i.i.i, align 8
  invoke void %7(ptr noundef nonnull align 8 dereferenceable(8) %5, ptr noundef %6)
          to label %.noexc1.i unwind label %terminate.lpad.i

.noexc1.i:                                        ; preds = %if.then.i.i.i
  store ptr null, ptr %m_convex_algorithm.i.i.i, align 8
  br label %_ZN27btGImpactCollisionAlgorithmD2Ev.exit

terminate.lpad.i:                                 ; preds = %if.then.i.i.i, %if.end.i.i.i
  %8 = landingpad { ptr, i32 }
          catch ptr null
  %9 = extractvalue { ptr, i32 } %8, 0
  tail call void @__clang_call_terminate(ptr %9) #15
  unreachable

_ZN27btGImpactCollisionAlgorithmD2Ev.exit:        ; preds = %_ZN27btGImpactCollisionAlgorithm23destroyContactManifoldsEv.exit.i.i, %.noexc1.i
  %m_triface0.i.i = getelementptr inbounds i8, ptr %this, i64 48
  tail call void @llvm.memset.p0.i64(ptr noundef nonnull align 8 dereferenceable(16) %m_triface0.i.i, i8 -1, i64 16, i1 false)
  tail call void @_ZN30btActivatingCollisionAlgorithmD2Ev(ptr noundef nonnull align 8 dereferenceable(16) %this) #14
  tail call void @_ZdlPv(ptr noundef nonnull %this) #16
  ret void
}